; ModuleID = '57/2177.c'
source_filename = "57/2177.c"
target datalayout = "e-m:e-p270:32:32-p271:32:32-p272:64:64-i64:64-f80:128-n8:16:32:64-S128"
target triple = "x86_64-pc-linux-gnu"

@.str = private unnamed_addr constant [3 x i8] c"%d\00", align 1
@.str.1 = private unnamed_addr constant [3 x i8] c"%s\00", align 1
@.str.2 = private unnamed_addr constant [3 x i8] c"%c\00", align 1
@.str.3 = private unnamed_addr constant [2 x i8] c"\0A\00", align 1

; Function Attrs: noinline nounwind uwtable
define dso_local void @main() #0 {
  %1 = alloca i32, align 4
  %2 = alloca i32, align 4
  %3 = alloca i32, align 4
  %4 = alloca [51 x i32], align 16
  %5 = alloca [51 x [21 x i8]], align 16
  %6 = call i32 (i8*, ...) @__isoc99_scanf(i8* getelementptr inbounds ([3 x i8], [3 x i8]* @.str, i64 0, i64 0), i32* %1)
  store i32 1, i32* %2, align 4
  br label %7

7:                                                ; preds = %159, %0
  %8 = load i32, i32* %2, align 4
  %9 = load i32, i32* %1, align 4
  %10 = icmp sle i32 %8, %9
  br i1 %10, label %11, label %162

11:                                               ; preds = %7
  %12 = load i32, i32* %2, align 4
  %13 = sext i32 %12 to i64
  %14 = getelementptr inbounds [51 x [21 x i8]], [51 x [21 x i8]]* %5, i64 0, i64 %13
  %15 = getelementptr inbounds [21 x i8], [21 x i8]* %14, i64 0, i64 0
  %16 = call i32 (i8*, ...) @__isoc99_scanf(i8* getelementptr inbounds ([3 x i8], [3 x i8]* @.str.1, i64 0, i64 0), i8* %15)
  %17 = load i32, i32* %2, align 4
  %18 = sext i32 %17 to i64
  %19 = getelementptr inbounds [51 x [21 x i8]], [51 x [21 x i8]]* %5, i64 0, i64 %18
  %20 = getelementptr inbounds [21 x i8], [21 x i8]* %19, i64 0, i64 0
  %21 = call i64 @strlen(i8* %20) #3
  %22 = trunc i64 %21 to i32
  %23 = load i32, i32* %2, align 4
  %24 = sext i32 %23 to i64
  %25 = getelementptr inbounds [51 x i32], [51 x i32]* %4, i64 0, i64 %24
  store i32 %22, i32* %25, align 4
  %26 = load i32, i32* %2, align 4
  %27 = sext i32 %26 to i64
  %28 = getelementptr inbounds [51 x [21 x i8]], [51 x [21 x i8]]* %5, i64 0, i64 %27
  %29 = load i32, i32* %2, align 4
  %30 = sext i32 %29 to i64
  %31 = getelementptr inbounds [51 x i32], [51 x i32]* %4, i64 0, i64 %30
  %32 = load i32, i32* %31, align 4
  %33 = sub nsw i32 %32, 1
  %34 = sext i32 %33 to i64
  %35 = getelementptr inbounds [21 x i8], [21 x i8]* %28, i64 0, i64 %34
  %36 = load i8, i8* %35, align 1
  %37 = sext i8 %36 to i32
  %38 = icmp eq i32 %37, 114
  br i1 %38, label %39, label %64

39:                                               ; preds = %11
  %40 = load i32, i32* %2, align 4
  %41 = sext i32 %40 to i64
  %42 = getelementptr inbounds [51 x [21 x i8]], [51 x [21 x i8]]* %5, i64 0, i64 %41
  %43 = load i32, i32* %2, align 4
  %44 = sext i32 %43 to i64
  %45 = getelementptr inbounds [51 x i32], [51 x i32]* %4, i64 0, i64 %44
  %46 = load i32, i32* %45, align 4
  %47 = sub nsw i32 %46, 2
  %48 = sext i32 %47 to i64
  %49 = getelementptr inbounds [21 x i8], [21 x i8]* %42, i64 0, i64 %48
  %50 = load i8, i8* %49, align 1
  %51 = sext i8 %50 to i32
  %52 = icmp eq i32 %51, 101
  br i1 %52, label %53, label %64

53:                                               ; preds = %39
  %54 = load i32, i32* %2, align 4
  %55 = sext i32 %54 to i64
  %56 = getelementptr inbounds [51 x [21 x i8]], [51 x [21 x i8]]* %5, i64 0, i64 %55
  %57 = load i32, i32* %2, align 4
  %58 = sext i32 %57 to i64
  %59 = getelementptr inbounds [51 x i32], [51 x i32]* %4, i64 0, i64 %58
  %60 = load i32, i32* %59, align 4
  %61 = sub nsw i32 %60, 2
  %62 = sext i32 %61 to i64
  %63 = getelementptr inbounds [21 x i8], [21 x i8]* %56, i64 0, i64 %62
  store i8 0, i8* %63, align 1
  br label %158

64:                                               ; preds = %39, %11
  %65 = load i32, i32* %2, align 4
  %66 = sext i32 %65 to i64
  %67 = getelementptr inbounds [51 x [21 x i8]], [51 x [21 x i8]]* %5, i64 0, i64 %66
  %68 = load i32, i32* %2, align 4
  %69 = sext i32 %68 to i64
  %70 = getelementptr inbounds [51 x i32], [51 x i32]* %4, i64 0, i64 %69
  %71 = load i32, i32* %70, align 4
  %72 = sub nsw i32 %71, 1
  %73 = sext i32 %72 to i64
  %74 = getelementptr inbounds [21 x i8], [21 x i8]* %67, i64 0, i64 %73
  %75 = load i8, i8* %74, align 1
  %76 = sext i8 %75 to i32
  %77 = icmp eq i32 %76, 121
  br i1 %77, label %78, label %103

78:                                               ; preds = %64
  %79 = load i32, i32* %2, align 4
  %80 = sext i32 %79 to i64
  %81 = getelementptr inbounds [51 x [21 x i8]], [51 x [21 x i8]]* %5, i64 0, i64 %80
  %82 = load i32, i32* %2, align 4
  %83 = sext i32 %82 to i64
  %84 = getelementptr inbounds [51 x i32], [51 x i32]* %4, i64 0, i64 %83
  %85 = load i32, i32* %84, align 4
  %86 = sub nsw i32 %85, 2
  %87 = sext i32 %86 to i64
  %88 = getelementptr inbounds [21 x i8], [21 x i8]* %81, i64 0, i64 %87
  %89 = load i8, i8* %88, align 1
  %90 = sext i8 %89 to i32
  %91 = icmp eq i32 %90, 108
  br i1 %91, label %92, label %103

92:                                               ; preds = %78
  %93 = load i32, i32* %2, align 4
  %94 = sext i32 %93 to i64
  %95 = getelementptr inbounds [51 x [21 x i8]], [51 x [21 x i8]]* %5, i64 0, i64 %94
  %96 = load i32, i32* %2, align 4
  %97 = sext i32 %96 to i64
  %98 = getelementptr inbounds [51 x i32], [51 x i32]* %4, i64 0, i64 %97
  %99 = load i32, i32* %98, align 4
  %100 = sub nsw i32 %99, 2
  %101 = sext i32 %100 to i64
  %102 = getelementptr inbounds [21 x i8], [21 x i8]* %95, i64 0, i64 %101
  store i8 0, i8* %102, align 1
  br label %157

103:                                              ; preds = %78, %64
  %104 = load i32, i32* %2, align 4
  %105 = sext i32 %104 to i64
  %106 = getelementptr inbounds [51 x [21 x i8]], [51 x [21 x i8]]* %5, i64 0, i64 %105
  %107 = load i32, i32* %2, align 4
  %108 = sext i32 %107 to i64
  %109 = getelementptr inbounds [51 x i32], [51 x i32]* %4, i64 0, i64 %108
  %110 = load i32, i32* %109, align 4
  %111 = sub nsw i32 %110, 1
  %112 = sext i32 %111 to i64
  %113 = getelementptr inbounds [21 x i8], [21 x i8]* %106, i64 0, i64 %112
  %114 = load i8, i8* %113, align 1
  %115 = sext i8 %114 to i32
  %116 = icmp eq i32 %115, 103
  br i1 %116, label %117, label %156

117:                                              ; preds = %103
  %118 = load i32, i32* %2, align 4
  %119 = sext i32 %118 to i64
  %120 = getelementptr inbounds [51 x [21 x i8]], [51 x [21 x i8]]* %5, i64 0, i64 %119
  %121 = load i32, i32* %2, align 4
  %122 = sext i32 %121 to i64
  %123 = getelementptr inbounds [51 x i32], [51 x i32]* %4, i64 0, i64 %122
  %124 = load i32, i32* %123, align 4
  %125 = sub nsw i32 %124, 2
  %126 = sext i32 %125 to i64
  %127 = getelementptr inbounds [21 x i8], [21 x i8]* %120, i64 0, i64 %126
  %128 = load i8, i8* %127, align 1
  %129 = sext i8 %128 to i32
  %130 = icmp eq i32 %129, 110
  br i1 %130, label %131, label %156

131:                                              ; preds = %117
  %132 = load i32, i32* %2, align 4
  %133 = sext i32 %132 to i64
  %134 = getelementptr inbounds [51 x [21 x i8]], [51 x [21 x i8]]* %5, i64 0, i64 %133
  %135 = load i32, i32* %2, align 4
  %136 = sext i32 %135 to i64
  %137 = getelementptr inbounds [51 x i32], [51 x i32]* %4, i64 0, i64 %136
  %138 = load i32, i32* %137, align 4
  %139 = sub nsw i32 %138, 3
  %140 = sext i32 %139 to i64
  %141 = getelementptr inbounds [21 x i8], [21 x i8]* %134, i64 0, i64 %140
  %142 = load i8, i8* %141, align 1
  %143 = sext i8 %142 to i32
  %144 = icmp eq i32 %143, 105
  br i1 %144, label %145, label %156

145:                                              ; preds = %131
  %146 = load i32, i32* %2, align 4
  %147 = sext i32 %146 to i64
  %148 = getelementptr inbounds [51 x [21 x i8]], [51 x [21 x i8]]* %5, i64 0, i64 %147
  %149 = load i32, i32* %2, align 4
  %150 = sext i32 %149 to i64
  %151 = getelementptr inbounds [51 x i32], [51 x i32]* %4, i64 0, i64 %150
  %152 = load i32, i32* %151, align 4
  %153 = sub nsw i32 %152, 3
  %154 = sext i32 %153 to i64
  %155 = getelementptr inbounds [21 x i8], [21 x i8]* %148, i64 0, i64 %154
  store i8 0, i8* %155, align 1
  br label %156

156:                                              ; preds = %145, %131, %117, %103
  br label %157

157:                                              ; preds = %156, %92
  br label %158

158:                                              ; preds = %157, %53
  br label %159

159:                                              ; preds = %158
  %160 = load i32, i32* %2, align 4
  %161 = add nsw i32 %160, 1
  store i32 %161, i32* %2, align 4
  br label %7

162:                                              ; preds = %7
  store i32 1, i32* %2, align 4
  br label %163

163:                                              ; preds = %193, %162
  %164 = load i32, i32* %2, align 4
  %165 = load i32, i32* %1, align 4
  %166 = icmp sle i32 %164, %165
  br i1 %166, label %167, label %196

167:                                              ; preds = %163
  store i32 0, i32* %3, align 4
  br label %168

168:                                              ; preds = %188, %167
  %169 = load i32, i32* %2, align 4
  %170 = sext i32 %169 to i64
  %171 = getelementptr inbounds [51 x [21 x i8]], [51 x [21 x i8]]* %5, i64 0, i64 %170
  %172 = load i32, i32* %3, align 4
  %173 = sext i32 %172 to i64
  %174 = getelementptr inbounds [21 x i8], [21 x i8]* %171, i64 0, i64 %173
  %175 = load i8, i8* %174, align 1
  %176 = sext i8 %175 to i32
  %177 = icmp ne i32 %176, 0
  br i1 %177, label %178, label %191

178:                                              ; preds = %168
  %179 = load i32, i32* %2, align 4
  %180 = sext i32 %179 to i64
  %181 = getelementptr inbounds [51 x [21 x i8]], [51 x [21 x i8]]* %5, i64 0, i64 %180
  %182 = load i32, i32* %3, align 4
  %183 = sext i32 %182 to i64
  %184 = getelementptr inbounds [21 x i8], [21 x i8]* %181, i64 0, i64 %183
  %185 = load i8, i8* %184, align 1
  %186 = sext i8 %185 to i32
  %187 = call i32 (i8*, ...) @printf(i8* getelementptr inbounds ([3 x i8], [3 x i8]* @.str.2, i64 0, i64 0), i32 %186)
  br label %188

188:                                              ; preds = %178
  %189 = load i32, i32* %3, align 4
  %190 = add nsw i32 %189, 1
  store i32 %190, i32* %3, align 4
  br label %168

191:                                              ; preds = %168
  %192 = call i32 (i8*, ...) @printf(i8* getelementptr inbounds ([2 x i8], [2 x i8]* @.str.3, i64 0, i64 0))
  br label %193

193:                                              ; preds = %191
  %194 = load i32, i32* %2, align 4
  %195 = add nsw i32 %194, 1
  store i32 %195, i32* %2, align 4
  br label %163

196:                                              ; preds = %163
  ret void
}

declare dso_local i32 @__isoc99_scanf(i8*, ...) #1

; Function Attrs: nounwind readonly
declare dso_local i64 @strlen(i8*) #2

declare dso_local i32 @printf(i8*, ...) #1


!llvm.module.flags = !{!0}
!llvm.ident = !{!1}

!0 = !{i32 1, !"wchar_size", i32 4}
!1 = !{!"clang version 10.0.0-4ubuntu1 "}
